target datalayout = "e-m:e-p270:32:32-p271:32:32-p272:64:64-i64:64-i128:128-f80:128-n8:16:32:64-S128"
target triple = "x86_64-unknown-linux-gnu"

%"class.hermes::sem::Keywords" = type { ptr, ptr, ptr, ptr, ptr, ptr, ptr, ptr, ptr, ptr, ptr, ptr, ptr, ptr }
%"class.hermes::sem::SemanticValidator" = type { ptr, ptr, %"class.hermes::SourceErrorManager::SaveAndBufferMessages", ptr, i32, %"class.hermes::sem::Keywords", ptr, i8, i8, i32 }
%"class.hermes::SourceErrorManager::SaveAndBufferMessages" = type { ptr }
%"class.hermes::ESTree::Node" = type { %"class.llvh::ilist_node", i32, i32, %"class.llvh::SMRange", %"class.llvh::SMLoc" }
%"class.llvh::ilist_node" = type { %"class.llvh::ilist_node_impl" }
%"class.llvh::ilist_node_impl" = type { %"class.llvh::ilist_node_base" }
%"class.llvh::ilist_node_base" = type { ptr, ptr }
%"class.llvh::SMRange" = type { %"class.llvh::SMLoc", %"class.llvh::SMLoc" }
%"class.llvh::SMLoc" = type { ptr }
%"class.llvh::Twine" = type <{ %"union.llvh::Twine::Child", %"union.llvh::Twine::Child", i8, i8, [6 x i8] }>
%"union.llvh::Twine::Child" = type { ptr }

@.str.52 = private unnamed_addr constant [40 x i8] c"':' expected in property initialization\00", align 1

; Function Attrs: mustprogress nounwind uwtable
define linkonce_odr hidden void @_ZN6hermes18SourceErrorManager5errorEN4llvh5SMLocERKNS1_5TwineENS_9SubsystemE(ptr noundef nonnull align 8 dereferenceable(464) %this, ptr %loc.coerce, ptr noundef nonnull align 8 dereferenceable(18) %msg, i32 noundef %subsystem) #0 comdat align 2 {
entry:
  %loc = alloca %"class.llvh::SMLoc", align 8
  %this.addr = alloca ptr, align 8
  %msg.addr = alloca ptr, align 8
  %subsystem.addr = alloca i32, align 4
  %agg.tmp = alloca %"class.llvh::SMLoc", align 8
  %coerce.dive = getelementptr inbounds %"class.llvh::SMLoc", ptr %loc, i32 0, i32 0
  store ptr %loc.coerce, ptr %coerce.dive, align 8
  store ptr %this, ptr %this.addr, align 8
  store ptr %msg, ptr %msg.addr, align 8
  store i32 %subsystem, ptr %subsystem.addr, align 4
  %this1 = load ptr, ptr %this.addr, align 8
  call void @llvm.memcpy.p0.p0.i64(ptr align 8 %agg.tmp, ptr align 8 %loc, i64 8, i1 false)
  %0 = load ptr, ptr %msg.addr, align 8
  %1 = load i32, ptr %subsystem.addr, align 4
  %coerce.dive2 = getelementptr inbounds %"class.llvh::SMLoc", ptr %agg.tmp, i32 0, i32 0
  %2 = load ptr, ptr %coerce.dive2, align 8
  call void @_ZN6hermes18SourceErrorManager7messageENS0_8DiagKindEN4llvh5SMLocERKNS2_5TwineENS_9SubsystemE(ptr noundef nonnull align 8 dereferenceable(464) %this1, i32 noundef 0, ptr %2, ptr noundef nonnull align 8 dereferenceable(18) %0, i32 noundef %1)
  ret void
}

; Function Attrs: mustprogress nounwind uwtable
define linkonce_odr hidden void @_ZN4llvh5TwineC2EPKc(ptr noundef nonnull align 8 dereferenceable(18) %this, ptr noundef %Str) unnamed_addr #0 comdat align 2 {
entry:
  %this.addr = alloca ptr, align 8
  %Str.addr = alloca ptr, align 8
  store ptr %this, ptr %this.addr, align 8
  store ptr %Str, ptr %Str.addr, align 8
  %this1 = load ptr, ptr %this.addr, align 8
  %LHSKind = getelementptr inbounds %"class.llvh::Twine", ptr %this1, i32 0, i32 2
  store i8 1, ptr %LHSKind, align 8
  %RHSKind = getelementptr inbounds %"class.llvh::Twine", ptr %this1, i32 0, i32 3
  store i8 1, ptr %RHSKind, align 1
  %0 = load ptr, ptr %Str.addr, align 8
  %arrayidx = getelementptr inbounds i8, ptr %0, i64 0
  %1 = load i8, ptr %arrayidx, align 1
  %conv = sext i8 %1 to i32
  %cmp = icmp ne i32 %conv, 0
  br i1 %cmp, label %if.then, label %if.else

if.then:                                          ; preds = %entry
  %2 = load ptr, ptr %Str.addr, align 8
  %LHS2 = getelementptr inbounds %"class.llvh::Twine", ptr %this1, i32 0, i32 0
  store ptr %2, ptr %LHS2, align 8
  %LHSKind3 = getelementptr inbounds %"class.llvh::Twine", ptr %this1, i32 0, i32 2
  store i8 3, ptr %LHSKind3, align 8
  br label %if.end

if.else:                                          ; preds = %entry
  %LHSKind4 = getelementptr inbounds %"class.llvh::Twine", ptr %this1, i32 0, i32 2
  store i8 1, ptr %LHSKind4, align 8
  br label %if.end

if.end:                                           ; preds = %if.else, %if.then
  ret void
}

; Function Attrs: mustprogress nounwind uwtable
define linkonce_odr hidden ptr @_ZNK6hermes6ESTree4Node11getStartLocEv(ptr noundef nonnull align 8 dereferenceable(48) %this) #0 comdat align 2 {
entry:
  %retval = alloca %"class.llvh::SMLoc", align 8
  %this.addr = alloca ptr, align 8
  store ptr %this, ptr %this.addr, align 8
  %this1 = load ptr, ptr %this.addr, align 8
  %sourceRange_ = getelementptr inbounds %"class.hermes::ESTree::Node", ptr %this1, i32 0, i32 3
  %Start = getelementptr inbounds %"class.llvh::SMRange", ptr %sourceRange_, i32 0, i32 0
  call void @llvm.memcpy.p0.p0.i64(ptr align 8 %retval, ptr align 8 %Start, i64 8, i1 false)
  %coerce.dive = getelementptr inbounds %"class.llvh::SMLoc", ptr %retval, i32 0, i32 0
  %0 = load ptr, ptr %coerce.dive, align 8
  ret ptr %0
}

; Function Attrs: mustprogress nounwind uwtable
define hidden void @_ZN6hermes3sem17SemanticValidator5visitEPNS_6ESTree20CoverInitializerNodeE(ptr noundef nonnull align 8 dereferenceable(168) %this, ptr noundef %CI) #0 align 2 {
entry:
  %this.addr = alloca ptr, align 8
  %CI.addr = alloca ptr, align 8
  %agg.tmp = alloca %"class.llvh::SMLoc", align 8
  %ref.tmp = alloca %"class.llvh::Twine", align 8
  store ptr %this, ptr %this.addr, align 8
  store ptr %CI, ptr %CI.addr, align 8
  %this1 = load ptr, ptr %this.addr, align 8
  %sm_ = getelementptr inbounds %"class.hermes::sem::SemanticValidator", ptr %this1, i32 0, i32 1
  %0 = load ptr, ptr %sm_, align 8
  %1 = load ptr, ptr %CI.addr, align 8
  %call = call ptr @_ZNK6hermes6ESTree4Node11getStartLocEv(ptr noundef nonnull align 8 dereferenceable(48) %1)
  %coerce.dive = getelementptr inbounds %"class.llvh::SMLoc", ptr %agg.tmp, i32 0, i32 0
  store ptr %call, ptr %coerce.dive, align 8
  call void @_ZN4llvh5TwineC2EPKc(ptr noundef nonnull align 8 dereferenceable(18) %ref.tmp, ptr noundef @.str.52)
  %coerce.dive2 = getelementptr inbounds %"class.llvh::SMLoc", ptr %agg.tmp, i32 0, i32 0
  %2 = load ptr, ptr %coerce.dive2, align 8
  call void @_ZN6hermes18SourceErrorManager5errorEN4llvh5SMLocERKNS1_5TwineENS_9SubsystemE(ptr noundef nonnull align 8 dereferenceable(464) %0, ptr %2, ptr noundef nonnull align 8 dereferenceable(18) %ref.tmp, i32 noundef 0)
  ret void
}